target datalayout = "e-m:e-p270:32:32-p271:32:32-p272:64:64-i64:64-i128:128-f80:128-n8:16:32:64-S128"
target triple = "x86_64-pc-linux-gnu"

%class.WeakProcessorTimes = type { i32, i32, double, [10 x ptr] }
%class.WorkerDataArray = type { ptr, i32, ptr, ptr, i8, [9 x ptr] }

; Function Attrs: mustprogress nounwind uwtable
define linkonce_odr hidden void @_ZN12CHeapObjBasedlEPv(ptr noundef %0) #1 comdat align 2 {
  %2 = alloca ptr, align 8
  store ptr %0, ptr %2, align 8
  %3 = load ptr, ptr %2, align 8
  call void @_Z8FreeHeapPv(ptr noundef %3)
  ret void
}

; Function Attrs: mustprogress nounwind uwtable
define linkonce_odr hidden void @_ZN8CHeapObjIL8MEMFLAGS5EEdlEPv(ptr noundef %0) #1 comdat align 2 {
  %2 = alloca ptr, align 8
  store ptr %0, ptr %2, align 8
  %3 = load ptr, ptr %2, align 8
  call void @_ZN12CHeapObjBasedlEPv(ptr noundef %3) #8
  ret void
}

; Function Attrs: mustprogress nounwind uwtable
define linkonce_odr hidden void @_ZN15WorkerDataArrayIdED2Ev(ptr noundef nonnull align 8 dereferenceable(112) %0) unnamed_addr #1 comdat align 2 {
  %2 = alloca ptr, align 8
  %3 = alloca i32, align 4
  store ptr %0, ptr %2, align 8
  %4 = load ptr, ptr %2, align 8
  store i32 0, ptr %3, align 4
  br label %5

5:                                                ; preds = %17, %1
  %6 = load i32, ptr %3, align 4
  %7 = icmp ult i32 %6, 9
  br i1 %7, label %8, label %20

8:                                                ; preds = %5
  %9 = getelementptr inbounds %class.WorkerDataArray, ptr %4, i32 0, i32 5
  %10 = load i32, ptr %3, align 4
  %11 = zext i32 %10 to i64
  %12 = getelementptr inbounds [9 x ptr], ptr %9, i64 0, i64 %11
  %13 = load ptr, ptr %12, align 8
  %14 = icmp eq ptr %13, null
  br i1 %14, label %16, label %15

15:                                               ; preds = %8
  call void @_ZN15WorkerDataArrayImED2Ev(ptr noundef nonnull align 8 dereferenceable(112) %13) #8
  call void @_ZN8CHeapObjIL8MEMFLAGS5EEdlEPv(ptr noundef %13) #8
  br label %16

16:                                               ; preds = %15, %8
  br label %17

17:                                               ; preds = %16
  %18 = load i32, ptr %3, align 4
  %19 = add i32 %18, 1
  store i32 %19, ptr %3, align 4
  br label %5, !llvm.loop !9

20:                                               ; preds = %5
  %21 = getelementptr inbounds %class.WorkerDataArray, ptr %4, i32 0, i32 0
  %22 = load ptr, ptr %21, align 8
  call void @_Z8FreeHeapPv(ptr noundef %22)
  ret void
}

; Function Attrs: mustprogress nounwind uwtable
define hidden void @_ZN18WeakProcessorTimesD2Ev(ptr noundef nonnull align 8 dereferenceable(96) %0) unnamed_addr #1 align 2 {
  %2 = alloca ptr, align 8
  %3 = alloca i64, align 8
  store ptr %0, ptr %2, align 8
  %4 = load ptr, ptr %2, align 8
  store i64 0, ptr %3, align 8
  br label %5

5:                                                ; preds = %16, %1
  %6 = load i64, ptr %3, align 8
  %7 = icmp ult i64 %6, 10
  br i1 %7, label %8, label %19

8:                                                ; preds = %5
  %9 = getelementptr inbounds %class.WeakProcessorTimes, ptr %4, i32 0, i32 3
  %10 = load i64, ptr %3, align 8
  %11 = getelementptr inbounds [10 x ptr], ptr %9, i64 0, i64 %10
  %12 = load ptr, ptr %11, align 8
  %13 = icmp eq ptr %12, null
  br i1 %13, label %15, label %14

14:                                               ; preds = %8
  call void @_ZN15WorkerDataArrayIdED2Ev(ptr noundef nonnull align 8 dereferenceable(112) %12) #8
  call void @_ZN8CHeapObjIL8MEMFLAGS5EEdlEPv(ptr noundef %12) #8
  br label %15

15:                                               ; preds = %14, %8
  br label %16

16:                                               ; preds = %15
  %17 = load i64, ptr %3, align 8
  %18 = add i64 %17, 1
  store i64 %18, ptr %3, align 8
  br label %5, !llvm.loop !8

19:                                               ; preds = %5
  ret void
}