; Function Attrs: mustprogress nounwind uwtable
define hidden void @_ZN18WeakProcessorTimesD2Ev(ptr nocapture noundef nonnull readonly align 8 dereferenceable(96) %0) unnamed_addr #0 align 2 {
  %2 = getelementptr inbounds i8, ptr %0, i64 16
  br label %3

3:                                                ; preds = %1, %16
  %.04 = phi i64 [ 0, %1 ], [ %17, %16 ]
  %4 = getelementptr inbounds [10 x ptr], ptr %2, i64 0, i64 %.04
  %5 = load ptr, ptr %4, align 8
  %6 = icmp eq ptr %5, null
  br i1 %6, label %16, label %7

7:                                                ; preds = %3
  %8 = getelementptr inbounds i8, ptr %5, i64 40
  br label %9

9:                                                ; preds = %14, %7
  %indvars.iv.i = phi i64 [ 0, %7 ], [ %indvars.iv.next.i, %14 ]
  %10 = getelementptr inbounds [9 x ptr], ptr %8, i64 0, i64 %indvars.iv.i
  %11 = load ptr, ptr %10, align 8
  %12 = icmp eq ptr %11, null
  br i1 %12, label %14, label %13

13:                                               ; preds = %9
  tail call void @_ZN15WorkerDataArrayImED2Ev(ptr noundef nonnull align 8 dereferenceable(112) %11) #13
  tail call void @_Z8FreeHeapPv(ptr noundef nonnull %11) #13
  br label %14

14:                                               ; preds = %13, %9
  %indvars.iv.next.i = add nuw nsw i64 %indvars.iv.i, 1
  %exitcond.not.i = icmp eq i64 %indvars.iv.next.i, 9
  br i1 %exitcond.not.i, label %_ZN15WorkerDataArrayIdED2Ev.exit, label %9, !llvm.loop !9

_ZN15WorkerDataArrayIdED2Ev.exit:                 ; preds = %14
  %15 = load ptr, ptr %5, align 8
  tail call void @_Z8FreeHeapPv(ptr noundef %15) #13
  tail call void @_Z8FreeHeapPv(ptr noundef nonnull %5) #13
  br label %16

16:                                               ; preds = %3, %_ZN15WorkerDataArrayIdED2Ev.exit
  %17 = add nuw nsw i64 %.04, 1
  %exitcond.not = icmp eq i64 %17, 10
  br i1 %exitcond.not, label %18, label %3, !llvm.loop !10

18:                                               ; preds = %16
  ret void
}